; Function Attrs: mustprogress nofree norecurse nosync nounwind willreturn memory(none) uwtable
define internal fastcc noundef range(i32 0, 2) i32 @_ZL21stbi__mad3sizes_validiiii(i32 noundef %0, i32 noundef %1, i32 noundef %2, i32 noundef range(i32 0, 16) %3) unnamed_addr #14 {
  %5 = or i32 %1, %0
  %or.cond.not.i = icmp sgt i32 %5, -1
  br i1 %or.cond.not.i, label %6, label %_ZL21stbi__mul2sizes_validii.exit.thread

6:                                                ; preds = %4
  %7 = icmp eq i32 %1, 0
  br i1 %7, label %_ZL21stbi__mul2sizes_validii.exit.thread15, label %_ZL21stbi__mul2sizes_validii.exit

_ZL21stbi__mul2sizes_validii.exit:                ; preds = %6
  %8 = udiv i32 2147483647, %1
  %.not23 = icmp sgt i32 %0, %8
  br i1 %.not23, label %_ZL21stbi__mul2sizes_validii.exit.thread, label %_ZL21stbi__mul2sizes_validii.exit.thread15

_ZL21stbi__mul2sizes_validii.exit.thread15:       ; preds = %6, %_ZL21stbi__mul2sizes_validii.exit
  %9 = mul nsw i32 %1, %0
  %10 = or i32 %2, %9
  %or.cond.not.i10 = icmp sgt i32 %10, -1
  br i1 %or.cond.not.i10, label %11, label %_ZL21stbi__mul2sizes_validii.exit.thread

11:                                               ; preds = %_ZL21stbi__mul2sizes_validii.exit.thread15
  %12 = icmp eq i32 %2, 0
  br i1 %12, label %_ZL21stbi__mul2sizes_validii.exit12.thread20, label %_ZL21stbi__mul2sizes_validii.exit12

_ZL21stbi__mul2sizes_validii.exit12:              ; preds = %11
  %13 = udiv i32 2147483647, %2
  %.not = icmp sgt i32 %9, %13
  br i1 %.not, label %_ZL21stbi__mul2sizes_validii.exit.thread, label %_ZL21stbi__mul2sizes_validii.exit12.thread20

_ZL21stbi__mul2sizes_validii.exit12.thread20:     ; preds = %11, %_ZL21stbi__mul2sizes_validii.exit12
  %14 = mul nsw i32 %9, %2
  %15 = xor i32 %3, 2147483647
  %16 = icmp sle i32 %14, %15
  %17 = zext i1 %16 to i32
  br label %_ZL21stbi__mul2sizes_validii.exit.thread

_ZL21stbi__mul2sizes_validii.exit.thread:         ; preds = %_ZL21stbi__mul2sizes_validii.exit.thread15, %4, %_ZL21stbi__mul2sizes_validii.exit12.thread20, %_ZL21stbi__mul2sizes_validii.exit12, %_ZL21stbi__mul2sizes_validii.exit
  %18 = phi i32 [ 0, %_ZL21stbi__mul2sizes_validii.exit12 ], [ 0, %_ZL21stbi__mul2sizes_validii.exit ], [ %17, %_ZL21stbi__mul2sizes_validii.exit12.thread20 ], [ 0, %4 ], [ 0, %_ZL21stbi__mul2sizes_validii.exit.thread15 ]
  ret i32 %18
}